target datalayout = "e-m:e-p270:32:32-p271:32:32-p272:64:64-i64:64-i128:128-f80:128-n8:16:32:64-S128"
target triple = "x86_64-pc-linux-gnu"

%struct.PHP_MURMUR3F_CTX = type { [2 x i64], [2 x i64], i32 }

; Function Attrs: nounwind uwtable
define void @PHP_MURMUR3FFinal(ptr noundef %0, ptr noundef %1) #0 {
  %3 = alloca ptr, align 8
  %4 = alloca ptr, align 8
  %5 = alloca [2 x i64], align 16
  store ptr %0, ptr %3, align 8
  store ptr %1, ptr %4, align 8
  call void @llvm.memset.p0.i64(ptr align 16 %5, i8 0, i64 16, i1 false)
  %6 = load ptr, ptr %4, align 8
  %7 = getelementptr inbounds %struct.PHP_MURMUR3F_CTX, ptr %6, i32 0, i32 0
  %8 = getelementptr inbounds [2 x i64], ptr %7, i64 0, i64 0
  %9 = load ptr, ptr %4, align 8
  %10 = getelementptr inbounds %struct.PHP_MURMUR3F_CTX, ptr %9, i32 0, i32 1
  %11 = getelementptr inbounds [2 x i64], ptr %10, i64 0, i64 0
  %12 = load ptr, ptr %4, align 8
  %13 = getelementptr inbounds %struct.PHP_MURMUR3F_CTX, ptr %12, i32 0, i32 2
  %14 = load i32, ptr %13, align 8
  %15 = getelementptr inbounds [2 x i64], ptr %5, i64 0, i64 0
  call void @PMurHash128x64_Result(ptr noundef %8, ptr noundef %11, i32 noundef %14, ptr noundef %15)
  %16 = getelementptr inbounds [2 x i64], ptr %5, i64 0, i64 0
  %17 = load i64, ptr %16, align 16
  %18 = lshr i64 %17, 56
  %19 = and i64 %18, 255
  %20 = trunc i64 %19 to i8
  %21 = load ptr, ptr %3, align 8
  %22 = getelementptr inbounds i8, ptr %21, i64 0
  store i8 %20, ptr %22, align 1
  %23 = getelementptr inbounds [2 x i64], ptr %5, i64 0, i64 0
  %24 = load i64, ptr %23, align 16
  %25 = lshr i64 %24, 48
  %26 = and i64 %25, 255
  %27 = trunc i64 %26 to i8
  %28 = load ptr, ptr %3, align 8
  %29 = getelementptr inbounds i8, ptr %28, i64 1
  store i8 %27, ptr %29, align 1
  %30 = getelementptr inbounds [2 x i64], ptr %5, i64 0, i64 0
  %31 = load i64, ptr %30, align 16
  %32 = lshr i64 %31, 40
  %33 = and i64 %32, 255
  %34 = trunc i64 %33 to i8
  %35 = load ptr, ptr %3, align 8
  %36 = getelementptr inbounds i8, ptr %35, i64 2
  store i8 %34, ptr %36, align 1
  %37 = getelementptr inbounds [2 x i64], ptr %5, i64 0, i64 0
  %38 = load i64, ptr %37, align 16
  %39 = lshr i64 %38, 32
  %40 = and i64 %39, 255
  %41 = trunc i64 %40 to i8
  %42 = load ptr, ptr %3, align 8
  %43 = getelementptr inbounds i8, ptr %42, i64 3
  store i8 %41, ptr %43, align 1
  %44 = getelementptr inbounds [2 x i64], ptr %5, i64 0, i64 0
  %45 = load i64, ptr %44, align 16
  %46 = lshr i64 %45, 24
  %47 = and i64 %46, 255
  %48 = trunc i64 %47 to i8
  %49 = load ptr, ptr %3, align 8
  %50 = getelementptr inbounds i8, ptr %49, i64 4
  store i8 %48, ptr %50, align 1
  %51 = getelementptr inbounds [2 x i64], ptr %5, i64 0, i64 0
  %52 = load i64, ptr %51, align 16
  %53 = lshr i64 %52, 16
  %54 = and i64 %53, 255
  %55 = trunc i64 %54 to i8
  %56 = load ptr, ptr %3, align 8
  %57 = getelementptr inbounds i8, ptr %56, i64 5
  store i8 %55, ptr %57, align 1
  %58 = getelementptr inbounds [2 x i64], ptr %5, i64 0, i64 0
  %59 = load i64, ptr %58, align 16
  %60 = lshr i64 %59, 8
  %61 = and i64 %60, 255
  %62 = trunc i64 %61 to i8
  %63 = load ptr, ptr %3, align 8
  %64 = getelementptr inbounds i8, ptr %63, i64 6
  store i8 %62, ptr %64, align 1
  %65 = getelementptr inbounds [2 x i64], ptr %5, i64 0, i64 0
  %66 = load i64, ptr %65, align 16
  %67 = and i64 %66, 255
  %68 = trunc i64 %67 to i8
  %69 = load ptr, ptr %3, align 8
  %70 = getelementptr inbounds i8, ptr %69, i64 7
  store i8 %68, ptr %70, align 1
  %71 = getelementptr inbounds [2 x i64], ptr %5, i64 0, i64 1
  %72 = load i64, ptr %71, align 8
  %73 = lshr i64 %72, 56
  %74 = and i64 %73, 255
  %75 = trunc i64 %74 to i8
  %76 = load ptr, ptr %3, align 8
  %77 = getelementptr inbounds i8, ptr %76, i64 8
  store i8 %75, ptr %77, align 1
  %78 = getelementptr inbounds [2 x i64], ptr %5, i64 0, i64 1
  %79 = load i64, ptr %78, align 8
  %80 = lshr i64 %79, 48
  %81 = and i64 %80, 255
  %82 = trunc i64 %81 to i8
  %83 = load ptr, ptr %3, align 8
  %84 = getelementptr inbounds i8, ptr %83, i64 9
  store i8 %82, ptr %84, align 1
  %85 = getelementptr inbounds [2 x i64], ptr %5, i64 0, i64 1
  %86 = load i64, ptr %85, align 8
  %87 = lshr i64 %86, 40
  %88 = and i64 %87, 255
  %89 = trunc i64 %88 to i8
  %90 = load ptr, ptr %3, align 8
  %91 = getelementptr inbounds i8, ptr %90, i64 10
  store i8 %89, ptr %91, align 1
  %92 = getelementptr inbounds [2 x i64], ptr %5, i64 0, i64 1
  %93 = load i64, ptr %92, align 8
  %94 = lshr i64 %93, 32
  %95 = and i64 %94, 255
  %96 = trunc i64 %95 to i8
  %97 = load ptr, ptr %3, align 8
  %98 = getelementptr inbounds i8, ptr %97, i64 11
  store i8 %96, ptr %98, align 1
  %99 = getelementptr inbounds [2 x i64], ptr %5, i64 0, i64 1
  %100 = load i64, ptr %99, align 8
  %101 = lshr i64 %100, 24
  %102 = and i64 %101, 255
  %103 = trunc i64 %102 to i8
  %104 = load ptr, ptr %3, align 8
  %105 = getelementptr inbounds i8, ptr %104, i64 12
  store i8 %103, ptr %105, align 1
  %106 = getelementptr inbounds [2 x i64], ptr %5, i64 0, i64 1
  %107 = load i64, ptr %106, align 8
  %108 = lshr i64 %107, 16
  %109 = and i64 %108, 255
  %110 = trunc i64 %109 to i8
  %111 = load ptr, ptr %3, align 8
  %112 = getelementptr inbounds i8, ptr %111, i64 13
  store i8 %110, ptr %112, align 1
  %113 = getelementptr inbounds [2 x i64], ptr %5, i64 0, i64 1
  %114 = load i64, ptr %113, align 8
  %115 = lshr i64 %114, 8
  %116 = and i64 %115, 255
  %117 = trunc i64 %116 to i8
  %118 = load ptr, ptr %3, align 8
  %119 = getelementptr inbounds i8, ptr %118, i64 14
  store i8 %117, ptr %119, align 1
  %120 = getelementptr inbounds [2 x i64], ptr %5, i64 0, i64 1
  %121 = load i64, ptr %120, align 8
  %122 = and i64 %121, 255
  %123 = trunc i64 %122 to i8
  %124 = load ptr, ptr %3, align 8
  %125 = getelementptr inbounds i8, ptr %124, i64 15
  store i8 %123, ptr %125, align 1
  ret void
}