; Function Attrs: nounwind uwtable
define void @PHP_MURMUR3FFinal(ptr nocapture noundef writeonly %0, ptr noundef %1) #0 {
  %3 = alloca [2 x i64], align 16
  call void @llvm.memset.p0.i64(ptr noundef nonnull align 16 dereferenceable(16) %3, i8 0, i64 16, i1 false)
  %4 = getelementptr inbounds i8, ptr %1, i64 16
  %5 = getelementptr inbounds i8, ptr %1, i64 32
  %6 = load i32, ptr %5, align 8
  call void @PMurHash128x64_Result(ptr noundef %1, ptr noundef nonnull %4, i32 noundef %6, ptr noundef nonnull %3) #5
  %7 = load i64, ptr %3, align 16
  %8 = lshr i64 %7, 56
  %9 = trunc i64 %8 to i8
  store i8 %9, ptr %0, align 1
  %10 = lshr i64 %7, 48
  %11 = trunc i64 %10 to i8
  %12 = getelementptr inbounds i8, ptr %0, i64 1
  store i8 %11, ptr %12, align 1
  %13 = lshr i64 %7, 40
  %14 = trunc i64 %13 to i8
  %15 = getelementptr inbounds i8, ptr %0, i64 2
  store i8 %14, ptr %15, align 1
  %16 = lshr i64 %7, 32
  %17 = trunc i64 %16 to i8
  %18 = getelementptr inbounds i8, ptr %0, i64 3
  store i8 %17, ptr %18, align 1
  %19 = lshr i64 %7, 24
  %20 = trunc i64 %19 to i8
  %21 = getelementptr inbounds i8, ptr %0, i64 4
  store i8 %20, ptr %21, align 1
  %22 = lshr i64 %7, 16
  %23 = trunc i64 %22 to i8
  %24 = getelementptr inbounds i8, ptr %0, i64 5
  store i8 %23, ptr %24, align 1
  %25 = lshr i64 %7, 8
  %26 = trunc i64 %25 to i8
  %27 = getelementptr inbounds i8, ptr %0, i64 6
  store i8 %26, ptr %27, align 1
  %28 = trunc i64 %7 to i8
  %29 = getelementptr inbounds i8, ptr %0, i64 7
  store i8 %28, ptr %29, align 1
  %30 = getelementptr inbounds i8, ptr %3, i64 8
  %31 = load i64, ptr %30, align 8
  %32 = lshr i64 %31, 56
  %33 = trunc i64 %32 to i8
  %34 = getelementptr inbounds i8, ptr %0, i64 8
  store i8 %33, ptr %34, align 1
  %35 = lshr i64 %31, 48
  %36 = trunc i64 %35 to i8
  %37 = getelementptr inbounds i8, ptr %0, i64 9
  store i8 %36, ptr %37, align 1
  %38 = lshr i64 %31, 40
  %39 = trunc i64 %38 to i8
  %40 = getelementptr inbounds i8, ptr %0, i64 10
  store i8 %39, ptr %40, align 1
  %41 = lshr i64 %31, 32
  %42 = trunc i64 %41 to i8
  %43 = getelementptr inbounds i8, ptr %0, i64 11
  store i8 %42, ptr %43, align 1
  %44 = lshr i64 %31, 24
  %45 = trunc i64 %44 to i8
  %46 = getelementptr inbounds i8, ptr %0, i64 12
  store i8 %45, ptr %46, align 1
  %47 = lshr i64 %31, 16
  %48 = trunc i64 %47 to i8
  %49 = getelementptr inbounds i8, ptr %0, i64 13
  store i8 %48, ptr %49, align 1
  %50 = lshr i64 %31, 8
  %51 = trunc i64 %50 to i8
  %52 = getelementptr inbounds i8, ptr %0, i64 14
  store i8 %51, ptr %52, align 1
  %53 = trunc i64 %31 to i8
  %54 = getelementptr inbounds i8, ptr %0, i64 15
  store i8 %53, ptr %54, align 1
  ret void
}